target datalayout = "e-m:e-p270:32:32-p271:32:32-p272:64:64-i64:64-i128:128-f80:128-n8:16:32:64-S128"
target triple = "x86_64-pc-linux-gnu"

%struct.SDL_Rect = type { i32, i32, i32, i32 }
%struct.SDL_Surface = type { i32, i32, i32, i32, i32, ptr, i32, ptr, i32, i32, ptr, i32, ptr, i32, ptr, i32, %struct.SDL_Rect, %struct.SDL_BlitMap }
%struct.SDL_BlitMap = type { i32, ptr, ptr, %struct.SDL_BlitInfo, i32, i32 }
%struct.SDL_BlitInfo = type { ptr, ptr, i32, i32, i32, i32, ptr, ptr, i32, i32, i32, i32, ptr, ptr, ptr, ptr, ptr, ptr, i32, i32, i8, i8, i8, i8 }
%struct.SDL_PixelFormatDetails = type { i32, i8, i8, [2 x i8], i32, i32, i32, i32, i8, i8, i8, i8, i8, i8, i8, i8 }

@.str = private unnamed_addr constant [26 x i8] c"Parameter '%s' is invalid\00", align 1
@.str.1 = private unnamed_addr constant [25 x i8] c"SDL_BlendFillRect(): dst\00", align 1
@.str.2 = private unnamed_addr constant [48 x i8] c"SDL_BlendFillRect(): Unsupported surface format\00", align 1

; Function Attrs: nounwind uwtable
define hidden zeroext i1 @SDL_BlendFillRect(ptr noundef %0, ptr noundef %1, i32 noundef %2, i8 noundef zeroext %3, i8 noundef zeroext %4, i8 noundef zeroext %5, i8 noundef zeroext %6) #0 {
  %8 = alloca i1, align 1
  %9 = alloca ptr, align 8
  %10 = alloca ptr, align 8
  %11 = alloca i32, align 4
  %12 = alloca i8, align 1
  %13 = alloca i8, align 1
  %14 = alloca i8, align 1
  %15 = alloca i8, align 1
  %16 = alloca %struct.SDL_Rect, align 4
  %17 = alloca i32, align 4
  store ptr %0, ptr %9, align 8
  store ptr %1, ptr %10, align 8
  store i32 %2, ptr %11, align 4
  store i8 %3, ptr %12, align 1
  store i8 %4, ptr %13, align 1
  store i8 %5, ptr %14, align 1
  store i8 %6, ptr %15, align 1
  call void @llvm.lifetime.start.p0(i64 16, ptr %16) #3
  %18 = load ptr, ptr %9, align 8
  %19 = call zeroext i1 @SDL_SurfaceValid(ptr noundef %18)
  br i1 %19, label %22, label %20

20:                                               ; preds = %7
  %21 = call zeroext i1 (ptr, ...) @SDL_SetError_REAL(ptr noundef @.str, ptr noundef @.str.1)
  store i1 %21, ptr %8, align 1
  store i32 1, ptr %17, align 4
  br label %184

22:                                               ; preds = %7
  %23 = load ptr, ptr %9, align 8
  %24 = getelementptr inbounds nuw %struct.SDL_Surface, ptr %23, i32 0, i32 1
  %25 = load i32, ptr %24, align 4
  %26 = icmp ne i32 %25, 0
  br i1 %26, label %27, label %35

27:                                               ; preds = %22
  %28 = load ptr, ptr %9, align 8
  %29 = getelementptr inbounds nuw %struct.SDL_Surface, ptr %28, i32 0, i32 1
  %30 = load i32, ptr %29, align 4
  %31 = lshr i32 %30, 28
  %32 = and i32 %31, 15
  %33 = icmp ne i32 %32, 1
  br i1 %33, label %34, label %35

34:                                               ; preds = %27
  br label %41

35:                                               ; preds = %27, %22
  %36 = load ptr, ptr %9, align 8
  %37 = getelementptr inbounds nuw %struct.SDL_Surface, ptr %36, i32 0, i32 1
  %38 = load i32, ptr %37, align 4
  %39 = lshr i32 %38, 8
  %40 = and i32 %39, 255
  br label %41

41:                                               ; preds = %35, %34
  %42 = phi i32 [ 0, %34 ], [ %40, %35 ]
  %43 = icmp ult i32 %42, 8
  br i1 %43, label %44, label %46

44:                                               ; preds = %41
  %45 = call zeroext i1 (ptr, ...) @SDL_SetError_REAL(ptr noundef @.str.2)
  store i1 %45, ptr %8, align 1
  store i32 1, ptr %17, align 4
  br label %184

46:                                               ; preds = %41
  %47 = load ptr, ptr %10, align 8
  %48 = icmp ne ptr %47, null
  br i1 %48, label %49, label %56

49:                                               ; preds = %46
  %50 = load ptr, ptr %10, align 8
  %51 = load ptr, ptr %9, align 8
  %52 = getelementptr inbounds nuw %struct.SDL_Surface, ptr %51, i32 0, i32 16
  %53 = call zeroext i1 @SDL_GetRectIntersection_REAL(ptr noundef %50, ptr noundef %52, ptr noundef %16)
  br i1 %53, label %55, label %54

54:                                               ; preds = %49
  store i1 true, ptr %8, align 1
  store i32 1, ptr %17, align 4
  br label %184

55:                                               ; preds = %49
  store ptr %16, ptr %10, align 8
  br label %59

56:                                               ; preds = %46
  %57 = load ptr, ptr %9, align 8
  %58 = getelementptr inbounds nuw %struct.SDL_Surface, ptr %57, i32 0, i32 16
  store ptr %58, ptr %10, align 8
  br label %59

59:                                               ; preds = %56, %55
  %60 = load i32, ptr %11, align 4
  %61 = icmp eq i32 %60, 1
  br i1 %61, label %65, label %62

62:                                               ; preds = %59
  %63 = load i32, ptr %11, align 4
  %64 = icmp eq i32 %63, 2
  br i1 %64, label %65, label %87

65:                                               ; preds = %62, %59
  %66 = load i8, ptr %12, align 1
  %67 = zext i8 %66 to i32
  %68 = load i8, ptr %15, align 1
  %69 = zext i8 %68 to i32
  %70 = mul i32 %67, %69
  %71 = udiv i32 %70, 255
  %72 = trunc i32 %71 to i8
  store i8 %72, ptr %12, align 1
  %73 = load i8, ptr %13, align 1
  %74 = zext i8 %73 to i32
  %75 = load i8, ptr %15, align 1
  %76 = zext i8 %75 to i32
  %77 = mul i32 %74, %76
  %78 = udiv i32 %77, 255
  %79 = trunc i32 %78 to i8
  store i8 %79, ptr %13, align 1
  %80 = load i8, ptr %14, align 1
  %81 = zext i8 %80 to i32
  %82 = load i8, ptr %15, align 1
  %83 = zext i8 %82 to i32
  %84 = mul i32 %81, %83
  %85 = udiv i32 %84, 255
  %86 = trunc i32 %85 to i8
  store i8 %86, ptr %14, align 1
  br label %87

87:                                               ; preds = %65, %62
  %88 = load ptr, ptr %9, align 8
  %89 = getelementptr inbounds nuw %struct.SDL_Surface, ptr %88, i32 0, i32 10
  %90 = load ptr, ptr %89, align 8
  %91 = getelementptr inbounds nuw %struct.SDL_PixelFormatDetails, ptr %90, i32 0, i32 1
  %92 = load i8, ptr %91, align 4
  %93 = zext i8 %92 to i32
  switch i32 %93, label %158 [
    i32 15, label %94
    i32 16, label %110
    i32 32, label %126
  ]

94:                                               ; preds = %87
  %95 = load ptr, ptr %9, align 8
  %96 = getelementptr inbounds nuw %struct.SDL_Surface, ptr %95, i32 0, i32 10
  %97 = load ptr, ptr %96, align 8
  %98 = getelementptr inbounds nuw %struct.SDL_PixelFormatDetails, ptr %97, i32 0, i32 4
  %99 = load i32, ptr %98, align 4
  switch i32 %99, label %109 [
    i32 31744, label %100
  ]

100:                                              ; preds = %94
  %101 = load ptr, ptr %9, align 8
  %102 = load ptr, ptr %10, align 8
  %103 = load i32, ptr %11, align 4
  %104 = load i8, ptr %12, align 1
  %105 = load i8, ptr %13, align 1
  %106 = load i8, ptr %14, align 1
  %107 = load i8, ptr %15, align 1
  %108 = call zeroext i1 @SDL_BlendFillRect_RGB555(ptr noundef %101, ptr noundef %102, i32 noundef %103, i8 noundef zeroext %104, i8 noundef zeroext %105, i8 noundef zeroext %106, i8 noundef zeroext %107)
  store i1 %108, ptr %8, align 1
  store i32 1, ptr %17, align 4
  br label %184

109:                                              ; preds = %94
  br label %159

110:                                              ; preds = %87
  %111 = load ptr, ptr %9, align 8
  %112 = getelementptr inbounds nuw %struct.SDL_Surface, ptr %111, i32 0, i32 10
  %113 = load ptr, ptr %112, align 8
  %114 = getelementptr inbounds nuw %struct.SDL_PixelFormatDetails, ptr %113, i32 0, i32 4
  %115 = load i32, ptr %114, align 4
  switch i32 %115, label %125 [
    i32 63488, label %116
  ]

116:                                              ; preds = %110
  %117 = load ptr, ptr %9, align 8
  %118 = load ptr, ptr %10, align 8
  %119 = load i32, ptr %11, align 4
  %120 = load i8, ptr %12, align 1
  %121 = load i8, ptr %13, align 1
  %122 = load i8, ptr %14, align 1
  %123 = load i8, ptr %15, align 1
  %124 = call zeroext i1 @SDL_BlendFillRect_RGB565(ptr noundef %117, ptr noundef %118, i32 noundef %119, i8 noundef zeroext %120, i8 noundef zeroext %121, i8 noundef zeroext %122, i8 noundef zeroext %123)
  store i1 %124, ptr %8, align 1
  store i32 1, ptr %17, align 4
  br label %184

125:                                              ; preds = %110
  br label %159

126:                                              ; preds = %87
  %127 = load ptr, ptr %9, align 8
  %128 = getelementptr inbounds nuw %struct.SDL_Surface, ptr %127, i32 0, i32 10
  %129 = load ptr, ptr %128, align 8
  %130 = getelementptr inbounds nuw %struct.SDL_PixelFormatDetails, ptr %129, i32 0, i32 4
  %131 = load i32, ptr %130, align 4
  switch i32 %131, label %157 [
    i32 16711680, label %132
  ]

132:                                              ; preds = %126
  %133 = load ptr, ptr %9, align 8
  %134 = getelementptr inbounds nuw %struct.SDL_Surface, ptr %133, i32 0, i32 10
  %135 = load ptr, ptr %134, align 8
  %136 = getelementptr inbounds nuw %struct.SDL_PixelFormatDetails, ptr %135, i32 0, i32 7
  %137 = load i32, ptr %136, align 4
  %138 = icmp ne i32 %137, 0
  br i1 %138, label %148, label %139

139:                                              ; preds = %132
  %140 = load ptr, ptr %9, align 8
  %141 = load ptr, ptr %10, align 8
  %142 = load i32, ptr %11, align 4
  %143 = load i8, ptr %12, align 1
  %144 = load i8, ptr %13, align 1
  %145 = load i8, ptr %14, align 1
  %146 = load i8, ptr %15, align 1
  %147 = call zeroext i1 @SDL_BlendFillRect_XRGB8888(ptr noundef %140, ptr noundef %141, i32 noundef %142, i8 noundef zeroext %143, i8 noundef zeroext %144, i8 noundef zeroext %145, i8 noundef zeroext %146)
  store i1 %147, ptr %8, align 1
  store i32 1, ptr %17, align 4
  br label %184

148:                                              ; preds = %132
  %149 = load ptr, ptr %9, align 8
  %150 = load ptr, ptr %10, align 8
  %151 = load i32, ptr %11, align 4
  %152 = load i8, ptr %12, align 1
  %153 = load i8, ptr %13, align 1
  %154 = load i8, ptr %14, align 1
  %155 = load i8, ptr %15, align 1
  %156 = call zeroext i1 @SDL_BlendFillRect_ARGB8888(ptr noundef %149, ptr noundef %150, i32 noundef %151, i8 noundef zeroext %152, i8 noundef zeroext %153, i8 noundef zeroext %154, i8 noundef zeroext %155)
  store i1 %156, ptr %8, align 1
  store i32 1, ptr %17, align 4
  br label %184

157:                                              ; preds = %126
  br label %159

158:                                              ; preds = %87
  br label %159

159:                                              ; preds = %158, %157, %125, %109
  %160 = load ptr, ptr %9, align 8
  %161 = getelementptr inbounds nuw %struct.SDL_Surface, ptr %160, i32 0, i32 10
  %162 = load ptr, ptr %161, align 8
  %163 = getelementptr inbounds nuw %struct.SDL_PixelFormatDetails, ptr %162, i32 0, i32 7
  %164 = load i32, ptr %163, align 4
  %165 = icmp ne i32 %164, 0
  br i1 %165, label %175, label %166

166:                                              ; preds = %159
  %167 = load ptr, ptr %9, align 8
  %168 = load ptr, ptr %10, align 8
  %169 = load i32, ptr %11, align 4
  %170 = load i8, ptr %12, align 1
  %171 = load i8, ptr %13, align 1
  %172 = load i8, ptr %14, align 1
  %173 = load i8, ptr %15, align 1
  %174 = call zeroext i1 @SDL_BlendFillRect_RGB(ptr noundef %167, ptr noundef %168, i32 noundef %169, i8 noundef zeroext %170, i8 noundef zeroext %171, i8 noundef zeroext %172, i8 noundef zeroext %173)
  store i1 %174, ptr %8, align 1
  store i32 1, ptr %17, align 4
  br label %184

175:                                              ; preds = %159
  %176 = load ptr, ptr %9, align 8
  %177 = load ptr, ptr %10, align 8
  %178 = load i32, ptr %11, align 4
  %179 = load i8, ptr %12, align 1
  %180 = load i8, ptr %13, align 1
  %181 = load i8, ptr %14, align 1
  %182 = load i8, ptr %15, align 1
  %183 = call zeroext i1 @SDL_BlendFillRect_RGBA(ptr noundef %176, ptr noundef %177, i32 noundef %178, i8 noundef zeroext %179, i8 noundef zeroext %180, i8 noundef zeroext %181, i8 noundef zeroext %182)
  store i1 %183, ptr %8, align 1
  store i32 1, ptr %17, align 4
  br label %184

184:                                              ; preds = %175, %166, %148, %139, %116, %100, %54, %44, %20
  call void @llvm.lifetime.end.p0(i64 16, ptr %16) #3
  %185 = load i1, ptr %8, align 1
  ret i1 %185
}