; Function Attrs: nounwind uwtable
define hidden zeroext i1 @SDL_BlendFillRect(ptr noundef %0, ptr noundef %1, i32 noundef %2, i8 noundef zeroext %3, i8 noundef zeroext %4, i8 noundef zeroext %5, i8 noundef zeroext %6) local_unnamed_addr #0 {
  %8 = alloca %struct.SDL_Rect, align 4
  call void @llvm.lifetime.start.p0(i64 16, ptr nonnull %8) #5
  %9 = tail call zeroext i1 @SDL_SurfaceValid(ptr noundef %0) #5
  br i1 %9, label %12, label %10

10:                                               ; preds = %7
  %11 = tail call zeroext i1 (ptr, ...) @SDL_SetError_REAL(ptr noundef nonnull @.str, ptr noundef nonnull @.str.1) #5
  br label %70

12:                                               ; preds = %7
  %13 = getelementptr inbounds nuw i8, ptr %0, i64 4
  %14 = load i32, ptr %13, align 4
  %.mask = and i32 %14, -268435456
  %.not73 = icmp ne i32 %.mask, 268435456
  %15 = and i32 %14, 63488
  %16 = icmp eq i32 %15, 0
  %or.cond83 = or i1 %.not73, %16
  br i1 %or.cond83, label %.critedge, label %18

.critedge:                                        ; preds = %12
  %17 = tail call zeroext i1 (ptr, ...) @SDL_SetError_REAL(ptr noundef nonnull @.str.2) #5
  br label %70

18:                                               ; preds = %12
  %.not74 = icmp eq ptr %1, null
  %19 = getelementptr inbounds nuw i8, ptr %0, i64 100
  br i1 %.not74, label %22, label %20

20:                                               ; preds = %18
  %21 = call zeroext i1 @SDL_GetRectIntersection_REAL(ptr noundef nonnull %1, ptr noundef nonnull %19, ptr noundef nonnull %8) #5
  br i1 %21, label %22, label %70

22:                                               ; preds = %18, %20
  %.070 = phi ptr [ %8, %20 ], [ %19, %18 ]
  %23 = add i32 %2, -1
  %or.cond = icmp ult i32 %23, 2
  br i1 %or.cond, label %24, label %38

24:                                               ; preds = %22
  %25 = zext i8 %3 to i32
  %26 = zext i8 %6 to i32
  %27 = mul nuw nsw i32 %26, %25
  %.lhs.trunc = trunc nuw i32 %27 to i16
  %28 = udiv i16 %.lhs.trunc, 255
  %29 = trunc nuw i16 %28 to i8
  %30 = zext i8 %4 to i32
  %31 = mul nuw nsw i32 %26, %30
  %.lhs.trunc78 = trunc nuw i32 %31 to i16
  %32 = udiv i16 %.lhs.trunc78, 255
  %33 = trunc nuw i16 %32 to i8
  %34 = zext i8 %5 to i32
  %35 = mul nuw nsw i32 %26, %34
  %.lhs.trunc80 = trunc nuw i32 %35 to i16
  %36 = udiv i16 %.lhs.trunc80, 255
  %37 = trunc nuw i16 %36 to i8
  br label %38

38:                                               ; preds = %22, %24
  %.069 = phi i8 [ %29, %24 ], [ %3, %22 ]
  %.068 = phi i8 [ %33, %24 ], [ %4, %22 ]
  %.067 = phi i8 [ %37, %24 ], [ %5, %22 ]
  %39 = getelementptr inbounds nuw i8, ptr %0, i64 56
  %40 = load ptr, ptr %39, align 8
  %41 = getelementptr inbounds nuw i8, ptr %40, i64 4
  %42 = load i8, ptr %41, align 4
  switch i8 %42, label %63 [
    i8 15, label %43
    i8 16, label %48
    i8 32, label %53
  ]

43:                                               ; preds = %38
  %44 = getelementptr inbounds nuw i8, ptr %40, i64 8
  %45 = load i32, ptr %44, align 4
  %cond2 = icmp eq i32 %45, 31744
  br i1 %cond2, label %46, label %63

46:                                               ; preds = %43
  %47 = call zeroext i1 @SDL_BlendFillRect_RGB555(ptr noundef nonnull %0, ptr noundef nonnull %.070, i32 noundef %2, i8 noundef zeroext %.069, i8 noundef zeroext %.068, i8 noundef zeroext %.067, i8 noundef zeroext %6)
  br label %70

48:                                               ; preds = %38
  %49 = getelementptr inbounds nuw i8, ptr %40, i64 8
  %50 = load i32, ptr %49, align 4
  %cond1 = icmp eq i32 %50, 63488
  br i1 %cond1, label %51, label %63

51:                                               ; preds = %48
  %52 = call zeroext i1 @SDL_BlendFillRect_RGB565(ptr noundef nonnull %0, ptr noundef nonnull %.070, i32 noundef %2, i8 noundef zeroext %.069, i8 noundef zeroext %.068, i8 noundef zeroext %.067, i8 noundef zeroext %6)
  br label %70

53:                                               ; preds = %38
  %54 = getelementptr inbounds nuw i8, ptr %40, i64 8
  %55 = load i32, ptr %54, align 4
  %cond = icmp eq i32 %55, 16711680
  br i1 %cond, label %56, label %63

56:                                               ; preds = %53
  %57 = getelementptr inbounds nuw i8, ptr %40, i64 20
  %58 = load i32, ptr %57, align 4
  %.not75 = icmp eq i32 %58, 0
  br i1 %.not75, label %59, label %61

59:                                               ; preds = %56
  %60 = call zeroext i1 @SDL_BlendFillRect_XRGB8888(ptr noundef nonnull %0, ptr noundef nonnull %.070, i32 noundef %2, i8 noundef zeroext %.069, i8 noundef zeroext %.068, i8 noundef zeroext %.067, i8 noundef zeroext %6)
  br label %70

61:                                               ; preds = %56
  %62 = call zeroext i1 @SDL_BlendFillRect_ARGB8888(ptr noundef nonnull %0, ptr noundef nonnull %.070, i32 noundef %2, i8 noundef zeroext %.069, i8 noundef zeroext %.068, i8 noundef zeroext %.067, i8 noundef zeroext %6)
  br label %70

63:                                               ; preds = %38, %53, %48, %43
  %64 = getelementptr inbounds nuw i8, ptr %40, i64 20
  %65 = load i32, ptr %64, align 4
  %.not76 = icmp eq i32 %65, 0
  br i1 %.not76, label %66, label %68

66:                                               ; preds = %63
  %67 = call zeroext i1 @SDL_BlendFillRect_RGB(ptr noundef nonnull %0, ptr noundef nonnull %.070, i32 noundef %2, i8 noundef zeroext %.069, i8 noundef zeroext %.068, i8 noundef zeroext %.067, i8 noundef zeroext %6)
  br label %70

68:                                               ; preds = %63
  %69 = call zeroext i1 @SDL_BlendFillRect_RGBA(ptr noundef nonnull %0, ptr noundef nonnull %.070, i32 noundef %2, i8 noundef zeroext %.069, i8 noundef zeroext %.068, i8 noundef zeroext %.067, i8 noundef zeroext %6)
  br label %70

70:                                               ; preds = %20, %68, %66, %61, %59, %51, %46, %.critedge, %10
  %.0 = phi i1 [ %17, %.critedge ], [ %69, %68 ], [ %67, %66 ], [ true, %61 ], [ true, %59 ], [ true, %51 ], [ true, %46 ], [ %11, %10 ], [ true, %20 ]
  call void @llvm.lifetime.end.p0(i64 16, ptr nonnull %8) #5
  ret i1 %.0
}